; Function Attrs: mustprogress uwtable
define dso_local void @_ZN13V3ThreadScope4waitEv(ptr noundef nonnull readonly align 8 captures(none) dereferenceable(8) %0) #3 align 2 personality ptr @__gxx_personality_v0 {
  %2 = load ptr, ptr %0, align 8, !tbaa !94
  %3 = getelementptr inbounds nuw i8, ptr %2, i64 176
  %4 = load atomic i64, ptr %3 acquire, align 8
  %.not8.i = icmp eq i64 %4, 0
  br i1 %.not8.i, label %.critedge.i, label %.lr.ph.i

.lr.ph.i:                                         ; preds = %1
  %5 = getelementptr inbounds nuw i8, ptr %2, i64 168
  br label %6

6:                                                ; preds = %9, %.lr.ph.i
  %7 = load atomic i8, ptr %5 seq_cst, align 1
  %8 = trunc i8 %7 to i1
  br i1 %8, label %.critedge.i, label %9

9:                                                ; preds = %6
  %10 = tail call noundef i32 @sched_yield() #29
  %11 = load atomic i64, ptr %3 acquire, align 8
  %.not.i = icmp eq i64 %11, 0
  br i1 %.not.i, label %.critedge.i, label %6, !llvm.loop !58

.critedge.i:                                      ; preds = %9, %6, %1
  %12 = getelementptr inbounds nuw i8, ptr %2, i64 168
  %13 = load atomic i8, ptr %12 seq_cst, align 1
  %14 = trunc i8 %13 to i1
  br i1 %14, label %15, label %_ZN12V3ThreadPool4waitEv.exit

15:                                               ; preds = %.critedge.i
  %16 = load ptr, ptr %2, align 8, !tbaa !59
  %17 = getelementptr inbounds nuw i8, ptr %2, i64 8
  %18 = load ptr, ptr %17, align 8, !tbaa !59
  %.not710.i = icmp eq ptr %16, %18
  br i1 %.not710.i, label %_ZN12V3ThreadPool4waitEv.exit, label %.lr.ph12.i

.lr.ph12.i:                                       ; preds = %15, %.lr.ph12.i
  %.sroa.04.011.i = phi ptr [ %19, %.lr.ph12.i ], [ %16, %15 ]
  tail call void @_ZNSt6thread4joinEv(ptr noundef nonnull align 8 dereferenceable(8) %.sroa.04.011.i)
  %19 = getelementptr inbounds nuw i8, ptr %.sroa.04.011.i, i64 8
  %.not7.i = icmp eq ptr %19, %18
  br i1 %.not7.i, label %_ZN12V3ThreadPool4waitEv.exit, label %.lr.ph12.i

_ZN12V3ThreadPool4waitEv.exit:                    ; preds = %.lr.ph12.i, %.critedge.i, %15
  ret void
}